; Function Attrs: mustprogress uwtable
define hidden noundef double @_ZN3sls12bv_lookahead9new_scoreEP4expr(ptr noundef nonnull align 8 dereferenceable(400) %0, ptr noundef %1) local_unnamed_addr #3 align 2 {
  %3 = getelementptr inbounds nuw i8, ptr %0, i64 144
  %4 = load i8, ptr %3, align 8, !tbaa !163, !range !94, !noundef !95
  %5 = trunc nuw i8 %4 to i1
  br i1 %5, label %12, label %6

6:                                                ; preds = %2
  %7 = getelementptr inbounds nuw i8, ptr %0, i64 24
  %8 = load ptr, ptr %7, align 8, !tbaa !96
  %9 = getelementptr inbounds nuw i8, ptr %8, i64 8
  %10 = load ptr, ptr %9, align 8, !tbaa !62
  %11 = tail call noundef zeroext i1 @_ZN3sls7context7is_trueEP4expr(ptr noundef nonnull align 8 dereferenceable(321) %10, ptr noundef %1)
  br label %12

12:                                               ; preds = %2, %6
  %.sink = phi i1 [ %11, %6 ], [ true, %2 ]
  %13 = tail call noundef double @_ZN3sls12bv_lookahead9new_scoreEP4exprb(ptr noundef nonnull align 8 dereferenceable(400) %0, ptr noundef %1, i1 noundef zeroext %.sink)
  ret double %13
}